target datalayout = "e-m:e-p270:32:32-p271:32:32-p272:64:64-i64:64-i128:128-f80:128-n8:16:32:64-S128"
target triple = "x86_64-pc-linux-gnu"

%struct.opcua_keylog_parser_ctx = type { ptr, i64 }
%struct.ua_keyset = type { i64, [16 x i8], [16 x i8], [32 x i8], [32 x i8], i32, i32, i32, i32 }

@.str.33 = private unnamed_addr constant [15 x i8] c"%32[^:]: %64s\0A\00", align 1
@.str.34 = private unnamed_addr constant [2 x i8] c"_\00", align 1
@.str.35 = private unnamed_addr constant [7 x i8] c"client\00", align 1
@.str.36 = private unnamed_addr constant [3 x i8] c"iv\00", align 1
@.str.37 = private unnamed_addr constant [4 x i8] c"key\00", align 1
@.str.38 = private unnamed_addr constant [7 x i8] c"siglen\00", align 1
@.str.39 = private unnamed_addr constant [7 x i8] c"server\00", align 1

; Function Attrs: inlinehint nounwind null_pointer_is_valid sspstrong uwtable
define internal i64 @ua_keyset_id(i32 noundef %0, i32 noundef %1) #7 {
  %3 = alloca i32, align 4
  %4 = alloca i32, align 4
  store i32 %0, ptr %3, align 4
  store i32 %1, ptr %4, align 4
  %5 = load i32, ptr %3, align 4
  %6 = zext i32 %5 to i64
  %7 = shl i64 %6, 32
  %8 = load i32, ptr %4, align 4
  %9 = zext i32 %8 to i64
  %10 = or i64 %7, %9
  ret i64 %10
}

; Function Attrs: nounwind null_pointer_is_valid sspstrong uwtable
define internal ptr @ua_strtok_r(ptr noundef %0, ptr noundef %1, ptr noundef %2) #0 {
  %4 = alloca ptr, align 8
  %5 = alloca ptr, align 8
  %6 = alloca ptr, align 8
  store ptr %0, ptr %4, align 8
  store ptr %1, ptr %5, align 8
  store ptr %2, ptr %6, align 8
  %7 = load ptr, ptr %4, align 8
  %8 = load ptr, ptr %5, align 8
  %9 = load ptr, ptr %6, align 8
  %10 = call ptr @strtok_r(ptr noundef %7, ptr noundef %8, ptr noundef %9) #9
  ret ptr %10
}

; Function Attrs: null_pointer_is_valid sspstrong uwtable
define internal void @opcua_keylog_process_line(ptr noundef %0, ptr noundef %1) #4 {
  %3 = alloca ptr, align 8
  %4 = alloca ptr, align 8
  %5 = alloca ptr, align 8
  %6 = alloca [33 x i8], align 16
  %7 = alloca [65 x i8], align 16
  %8 = alloca [4 x ptr], align 16
  %9 = alloca i32, align 4
  %10 = alloca ptr, align 8
  %11 = alloca ptr, align 8
  %12 = alloca i32, align 4
  %13 = alloca i32, align 4
  %14 = alloca i64, align 8
  %15 = alloca i32, align 4
  %16 = alloca i32, align 4
  store ptr %0, ptr %3, align 8
  store ptr %1, ptr %4, align 8
  call void @llvm.lifetime.start.p0(i64 8, ptr %5) #9
  call void @llvm.lifetime.start.p0(i64 33, ptr %6) #9
  call void @llvm.lifetime.start.p0(i64 65, ptr %7) #9
  call void @llvm.lifetime.start.p0(i64 32, ptr %8) #9
  call void @llvm.lifetime.start.p0(i64 4, ptr %9) #9
  call void @llvm.lifetime.start.p0(i64 8, ptr %10) #9
  call void @llvm.lifetime.start.p0(i64 8, ptr %11) #9
  call void @llvm.lifetime.start.p0(i64 4, ptr %12) #9
  store i32 0, ptr %12, align 4
  call void @llvm.lifetime.start.p0(i64 4, ptr %13) #9
  store i32 0, ptr %13, align 4
  call void @llvm.lifetime.start.p0(i64 8, ptr %14) #9
  store i64 0, ptr %14, align 8
  call void @llvm.lifetime.start.p0(i64 4, ptr %15) #9
  %17 = load ptr, ptr %4, align 8
  %18 = getelementptr inbounds [33 x i8], ptr %6, i64 0, i64 0
  %19 = getelementptr inbounds [65 x i8], ptr %7, i64 0, i64 0
  %20 = call i32 (ptr, ptr, ...) @__isoc99_sscanf(ptr noundef %17, ptr noundef @.str.33, ptr noundef %18, ptr noundef %19) #9
  store i32 %20, ptr %15, align 4
  %21 = load i32, ptr %15, align 4
  %22 = icmp ne i32 %21, 2
  br i1 %22, label %23, label %24

23:                                               ; preds = %2
  store i32 1, ptr %16, align 4
  br label %173

24:                                               ; preds = %2
  store i32 0, ptr %9, align 4
  %25 = getelementptr inbounds [33 x i8], ptr %6, i64 0, i64 0
  %26 = call ptr @ua_strtok_r(ptr noundef %25, ptr noundef @.str.34, ptr noundef %11)
  store ptr %26, ptr %10, align 8
  br label %27

27:                                               ; preds = %35, %24
  %28 = load ptr, ptr %10, align 8
  %29 = icmp ne ptr %28, null
  br i1 %29, label %30, label %33

30:                                               ; preds = %27
  %31 = load i32, ptr %9, align 4
  %32 = icmp ult i32 %31, 4
  br label %33

33:                                               ; preds = %30, %27
  %34 = phi i1 [ false, %27 ], [ %32, %30 ]
  br i1 %34, label %35, label %42

35:                                               ; preds = %33
  %36 = load ptr, ptr %10, align 8
  %37 = load i32, ptr %9, align 4
  %38 = add i32 %37, 1
  store i32 %38, ptr %9, align 4
  %39 = zext i32 %37 to i64
  %40 = getelementptr [4 x ptr], ptr %8, i64 0, i64 %39
  store ptr %36, ptr %40, align 8
  %41 = call ptr @ua_strtok_r(ptr noundef null, ptr noundef @.str.34, ptr noundef %11)
  store ptr %41, ptr %10, align 8
  br label %27, !llvm.loop !9

42:                                               ; preds = %33
  %43 = load i32, ptr %9, align 4
  %44 = icmp ne i32 %43, 4
  br i1 %44, label %45, label %46

45:                                               ; preds = %42
  store i32 1, ptr %16, align 4
  br label %173

46:                                               ; preds = %42
  %47 = getelementptr [4 x ptr], ptr %8, i64 0, i64 2
  %48 = load ptr, ptr %47, align 16
  %49 = call i64 @strtoul(ptr noundef %48, ptr noundef null, i32 noundef 10) #9
  %50 = trunc i64 %49 to i32
  store i32 %50, ptr %13, align 4
  %51 = getelementptr [4 x ptr], ptr %8, i64 0, i64 3
  %52 = load ptr, ptr %51, align 8
  %53 = call i64 @strtoul(ptr noundef %52, ptr noundef null, i32 noundef 10) #9
  %54 = trunc i64 %53 to i32
  store i32 %54, ptr %12, align 4
  %55 = load i32, ptr %13, align 4
  %56 = load i32, ptr %12, align 4
  %57 = call i64 @ua_keyset_id(i32 noundef %55, i32 noundef %56)
  store i64 %57, ptr %14, align 8
  %58 = load ptr, ptr %3, align 8
  %59 = getelementptr inbounds nuw %struct.opcua_keylog_parser_ctx, ptr %58, i32 0, i32 0
  %60 = load ptr, ptr %59, align 8
  %61 = icmp eq ptr %60, null
  br i1 %61, label %68, label %62

62:                                               ; preds = %46
  %63 = load i64, ptr %14, align 8
  %64 = load ptr, ptr %3, align 8
  %65 = getelementptr inbounds nuw %struct.opcua_keylog_parser_ctx, ptr %64, i32 0, i32 1
  %66 = load i64, ptr %65, align 8
  %67 = icmp ne i64 %63, %66
  br i1 %67, label %68, label %75

68:                                               ; preds = %62, %46
  %69 = call ptr @ua_keysets_add()
  %70 = load ptr, ptr %3, align 8
  %71 = getelementptr inbounds nuw %struct.opcua_keylog_parser_ctx, ptr %70, i32 0, i32 0
  store ptr %69, ptr %71, align 8
  %72 = load i64, ptr %14, align 8
  %73 = load ptr, ptr %3, align 8
  %74 = getelementptr inbounds nuw %struct.opcua_keylog_parser_ctx, ptr %73, i32 0, i32 1
  store i64 %72, ptr %74, align 8
  br label %75

75:                                               ; preds = %68, %62
  %76 = load ptr, ptr %3, align 8
  %77 = getelementptr inbounds nuw %struct.opcua_keylog_parser_ctx, ptr %76, i32 0, i32 0
  %78 = load ptr, ptr %77, align 8
  store ptr %78, ptr %5, align 8
  %79 = load ptr, ptr %5, align 8
  %80 = icmp ne ptr %79, null
  br i1 %80, label %81, label %172

81:                                               ; preds = %75
  %82 = load i64, ptr %14, align 8
  %83 = load ptr, ptr %5, align 8
  %84 = getelementptr inbounds nuw %struct.ua_keyset, ptr %83, i32 0, i32 0
  store i64 %82, ptr %84, align 8
  %85 = getelementptr [4 x ptr], ptr %8, i64 0, i64 0
  %86 = load ptr, ptr %85, align 16
  %87 = call i32 @strcmp(ptr noundef %86, ptr noundef @.str.35) #10
  %88 = icmp eq i32 %87, 0
  br i1 %88, label %89, label %127

89:                                               ; preds = %81
  %90 = getelementptr [4 x ptr], ptr %8, i64 0, i64 1
  %91 = load ptr, ptr %90, align 8
  %92 = call i32 @strcmp(ptr noundef %91, ptr noundef @.str.36) #10
  %93 = icmp eq i32 %92, 0
  br i1 %93, label %94, label %100

94:                                               ; preds = %89
  %95 = getelementptr inbounds [65 x i8], ptr %7, i64 0, i64 0
  %96 = load ptr, ptr %5, align 8
  %97 = getelementptr inbounds nuw %struct.ua_keyset, ptr %96, i32 0, i32 1
  %98 = getelementptr inbounds [16 x i8], ptr %97, i64 0, i64 0
  %99 = call i32 @hex_to_bin(ptr noundef %95, ptr noundef %98, i32 noundef 16)
  br label %126

100:                                              ; preds = %89
  %101 = getelementptr [4 x ptr], ptr %8, i64 0, i64 1
  %102 = load ptr, ptr %101, align 8
  %103 = call i32 @strcmp(ptr noundef %102, ptr noundef @.str.37) #10
  %104 = icmp eq i32 %103, 0
  br i1 %104, label %105, label %113

105:                                              ; preds = %100
  %106 = getelementptr inbounds [65 x i8], ptr %7, i64 0, i64 0
  %107 = load ptr, ptr %5, align 8
  %108 = getelementptr inbounds nuw %struct.ua_keyset, ptr %107, i32 0, i32 3
  %109 = getelementptr inbounds [32 x i8], ptr %108, i64 0, i64 0
  %110 = call i32 @hex_to_bin(ptr noundef %106, ptr noundef %109, i32 noundef 32)
  %111 = load ptr, ptr %5, align 8
  %112 = getelementptr inbounds nuw %struct.ua_keyset, ptr %111, i32 0, i32 5
  store i32 %110, ptr %112, align 8
  br label %125

113:                                              ; preds = %100
  %114 = getelementptr [4 x ptr], ptr %8, i64 0, i64 1
  %115 = load ptr, ptr %114, align 8
  %116 = call i32 @strcmp(ptr noundef %115, ptr noundef @.str.38) #10
  %117 = icmp eq i32 %116, 0
  br i1 %117, label %118, label %124

118:                                              ; preds = %113
  %119 = getelementptr inbounds [65 x i8], ptr %7, i64 0, i64 0
  %120 = call i64 @strtoul(ptr noundef %119, ptr noundef null, i32 noundef 10) #9
  %121 = trunc i64 %120 to i32
  %122 = load ptr, ptr %5, align 8
  %123 = getelementptr inbounds nuw %struct.ua_keyset, ptr %122, i32 0, i32 7
  store i32 %121, ptr %123, align 8
  br label %124

124:                                              ; preds = %118, %113
  br label %125

125:                                              ; preds = %124, %105
  br label %126

126:                                              ; preds = %125, %94
  br label %171

127:                                              ; preds = %81
  %128 = getelementptr [4 x ptr], ptr %8, i64 0, i64 0
  %129 = load ptr, ptr %128, align 16
  %130 = call i32 @strcmp(ptr noundef %129, ptr noundef @.str.39) #10
  %131 = icmp eq i32 %130, 0
  br i1 %131, label %132, label %170

132:                                              ; preds = %127
  %133 = getelementptr [4 x ptr], ptr %8, i64 0, i64 1
  %134 = load ptr, ptr %133, align 8
  %135 = call i32 @strcmp(ptr noundef %134, ptr noundef @.str.36) #10
  %136 = icmp eq i32 %135, 0
  br i1 %136, label %137, label %143

137:                                              ; preds = %132
  %138 = getelementptr inbounds [65 x i8], ptr %7, i64 0, i64 0
  %139 = load ptr, ptr %5, align 8
  %140 = getelementptr inbounds nuw %struct.ua_keyset, ptr %139, i32 0, i32 2
  %141 = getelementptr inbounds [16 x i8], ptr %140, i64 0, i64 0
  %142 = call i32 @hex_to_bin(ptr noundef %138, ptr noundef %141, i32 noundef 16)
  br label %169

143:                                              ; preds = %132
  %144 = getelementptr [4 x ptr], ptr %8, i64 0, i64 1
  %145 = load ptr, ptr %144, align 8
  %146 = call i32 @strcmp(ptr noundef %145, ptr noundef @.str.37) #10
  %147 = icmp eq i32 %146, 0
  br i1 %147, label %148, label %156

148:                                              ; preds = %143
  %149 = getelementptr inbounds [65 x i8], ptr %7, i64 0, i64 0
  %150 = load ptr, ptr %5, align 8
  %151 = getelementptr inbounds nuw %struct.ua_keyset, ptr %150, i32 0, i32 4
  %152 = getelementptr inbounds [32 x i8], ptr %151, i64 0, i64 0
  %153 = call i32 @hex_to_bin(ptr noundef %149, ptr noundef %152, i32 noundef 32)
  %154 = load ptr, ptr %5, align 8
  %155 = getelementptr inbounds nuw %struct.ua_keyset, ptr %154, i32 0, i32 6
  store i32 %153, ptr %155, align 4
  br label %168

156:                                              ; preds = %143
  %157 = getelementptr [4 x ptr], ptr %8, i64 0, i64 1
  %158 = load ptr, ptr %157, align 8
  %159 = call i32 @strcmp(ptr noundef %158, ptr noundef @.str.38) #10
  %160 = icmp eq i32 %159, 0
  br i1 %160, label %161, label %167

161:                                              ; preds = %156
  %162 = getelementptr inbounds [65 x i8], ptr %7, i64 0, i64 0
  %163 = call i64 @strtoul(ptr noundef %162, ptr noundef null, i32 noundef 10) #9
  %164 = trunc i64 %163 to i32
  %165 = load ptr, ptr %5, align 8
  %166 = getelementptr inbounds nuw %struct.ua_keyset, ptr %165, i32 0, i32 8
  store i32 %164, ptr %166, align 4
  br label %167

167:                                              ; preds = %161, %156
  br label %168

168:                                              ; preds = %167, %148
  br label %169

169:                                              ; preds = %168, %137
  br label %170

170:                                              ; preds = %169, %127
  br label %171

171:                                              ; preds = %170, %126
  br label %172

172:                                              ; preds = %171, %75
  store i32 0, ptr %16, align 4
  br label %173

173:                                              ; preds = %172, %45, %23
  call void @llvm.lifetime.end.p0(i64 4, ptr %15) #9
  call void @llvm.lifetime.end.p0(i64 8, ptr %14) #9
  call void @llvm.lifetime.end.p0(i64 4, ptr %13) #9
  call void @llvm.lifetime.end.p0(i64 4, ptr %12) #9
  call void @llvm.lifetime.end.p0(i64 8, ptr %11) #9
  call void @llvm.lifetime.end.p0(i64 8, ptr %10) #9
  call void @llvm.lifetime.end.p0(i64 4, ptr %9) #9
  call void @llvm.lifetime.end.p0(i64 32, ptr %8) #9
  call void @llvm.lifetime.end.p0(i64 65, ptr %7) #9
  call void @llvm.lifetime.end.p0(i64 33, ptr %6) #9
  call void @llvm.lifetime.end.p0(i64 8, ptr %5) #9
  %174 = load i32, ptr %16, align 4
  switch i32 %174, label %176 [
    i32 0, label %175
    i32 1, label %175
  ]

175:                                              ; preds = %173, %173
  ret void

176:                                              ; preds = %173
  unreachable
}