; Function Attrs: null_pointer_is_valid sspstrong uwtable
define internal fastcc void @opcua_keylog_process_line(ptr noundef captures(none) %0, ptr noundef readonly captures(none) %1) unnamed_addr #4 {
  %3 = alloca [33 x i8], align 16
  %4 = alloca [65 x i8], align 16
  %5 = alloca [4 x ptr], align 16
  %6 = alloca ptr, align 8
  call void @llvm.lifetime.start.p0(i64 33, ptr nonnull %3) #11
  call void @llvm.lifetime.start.p0(i64 65, ptr nonnull %4) #11
  call void @llvm.lifetime.start.p0(i64 32, ptr nonnull %5) #11
  call void @llvm.lifetime.start.p0(i64 8, ptr nonnull %6) #11
  %7 = call i32 (ptr, ptr, ...) @__isoc99_sscanf(ptr noundef %1, ptr noundef nonnull @.str.33, ptr noundef nonnull %3, ptr noundef nonnull %4) #11
  %.not = icmp eq i32 %7, 2
  br i1 %.not, label %8, label %hex_to_bin.exit

8:                                                ; preds = %2
  %9 = call ptr @strtok_r(ptr noundef nonnull %3, ptr noundef nonnull @.str.34, ptr noundef nonnull %6) #11
  %.not38 = icmp eq ptr %9, null
  br i1 %.not38, label %hex_to_bin.exit, label %.lr.ph

.lr.ph:                                           ; preds = %8, %.lr.ph
  %indvars.iv = phi i64 [ %indvars.iv.next, %.lr.ph ], [ 0, %8 ]
  %.02636 = phi ptr [ %11, %.lr.ph ], [ %9, %8 ]
  %indvars.iv.next = add nuw nsw i64 %indvars.iv, 1
  %10 = getelementptr [4 x ptr], ptr %5, i64 0, i64 %indvars.iv
  store ptr %.02636, ptr %10, align 8
  %11 = call ptr @strtok_r(ptr noundef null, ptr noundef nonnull @.str.34, ptr noundef nonnull %6) #11
  %12 = icmp ne ptr %11, null
  %13 = icmp samesign ult i64 %indvars.iv, 3
  %14 = select i1 %12, i1 %13, i1 false
  br i1 %14, label %.lr.ph, label %._crit_edge, !llvm.loop !10

._crit_edge:                                      ; preds = %.lr.ph
  %15 = icmp eq i64 %indvars.iv.next, 4
  br i1 %15, label %16, label %hex_to_bin.exit

16:                                               ; preds = %._crit_edge
  %17 = getelementptr inbounds nuw i8, ptr %5, i64 16
  %18 = load ptr, ptr %17, align 16
  %19 = call i64 @strtoul(ptr noundef captures(none) %18, ptr noundef null, i32 noundef 10) #11
  %20 = getelementptr inbounds nuw i8, ptr %5, i64 24
  %21 = load ptr, ptr %20, align 8
  %22 = call i64 @strtoul(ptr noundef captures(none) %21, ptr noundef null, i32 noundef 10) #11
  %23 = shl i64 %19, 32
  %24 = and i64 %22, 4294967295
  %25 = or disjoint i64 %24, %23
  %26 = load ptr, ptr %0, align 8
  %27 = icmp eq ptr %26, null
  br i1 %27, label %thread-pre-split, label %28

28:                                               ; preds = %16
  %29 = getelementptr inbounds nuw i8, ptr %0, i64 8
  %30 = load i64, ptr %29, align 8
  %.not29 = icmp eq i64 %25, %30
  br i1 %.not29, label %thread-pre-split.thread, label %thread-pre-split

thread-pre-split:                                 ; preds = %16, %28
  %31 = call ptr @ua_keysets_add()
  store ptr %31, ptr %0, align 8
  %32 = getelementptr inbounds nuw i8, ptr %0, i64 8
  store i64 %25, ptr %32, align 8
  %.not30 = icmp eq ptr %31, null
  br i1 %.not30, label %hex_to_bin.exit, label %thread-pre-split.thread

thread-pre-split.thread:                          ; preds = %28, %thread-pre-split
  %33 = phi ptr [ %31, %thread-pre-split ], [ %26, %28 ]
  store i64 %25, ptr %33, align 8
  %34 = load ptr, ptr %5, align 16
  %35 = call i32 @strcmp(ptr noundef %34, ptr noundef nonnull dereferenceable(7) @.str.35) #10
  %36 = icmp eq i32 %35, 0
  br i1 %36, label %sub_0, label %67

sub_0:                                            ; preds = %thread-pre-split.thread
  %37 = getelementptr inbounds nuw i8, ptr %5, i64 8
  %38 = load ptr, ptr %37, align 8
  %39 = load i8, ptr %38, align 1
  %.not41 = icmp eq i8 %39, 105
  br i1 %.not41, label %sub_1, label %.tail.thread

sub_1:                                            ; preds = %sub_0
  %40 = getelementptr inbounds nuw i8, ptr %38, i64 1
  %41 = load i8, ptr %40, align 1
  %.not42 = icmp eq i8 %41, 118
  br i1 %.not42, label %.tail, label %.tail.thread

.tail:                                            ; preds = %sub_1
  %42 = getelementptr inbounds nuw i8, ptr %38, i64 2
  %43 = load i8, ptr %42, align 1
  %44 = icmp eq i8 %43, 0
  br i1 %44, label %45, label %.tail.thread

45:                                               ; preds = %.tail
  %46 = getelementptr inbounds nuw i8, ptr %33, i64 8
  %47 = call i64 @strlen(ptr noundef nonnull readonly dereferenceable(1) %4) #10
  %48 = trunc i64 %47 to i32
  %.not.i = icmp ult i32 %48, 2
  br i1 %.not.i, label %hex_to_bin.exit, label %.lr.ph.preheader.i

.lr.ph.preheader.i:                               ; preds = %45
  %49 = lshr i32 %48, 1
  %invariant.umin.i = call i32 @llvm.umin.i32(i32 %49, i32 16)
  %wide.trip.count.i = zext nneg i32 %invariant.umin.i to i64
  br label %.lr.ph.i

.lr.ph.i:                                         ; preds = %.lr.ph.i, %.lr.ph.preheader.i
  %indvars.iv.i = phi i64 [ 0, %.lr.ph.preheader.i ], [ %indvars.iv.next.i, %.lr.ph.i ]
  %50 = shl nuw i64 %indvars.iv.i, 1
  %51 = getelementptr i8, ptr %4, i64 %50
  %52 = getelementptr i8, ptr %46, i64 %indvars.iv.i
  %53 = call i32 (ptr, ptr, ...) @__isoc99_sscanf(ptr noundef readonly %51, ptr noundef nonnull @.str, ptr noundef %52) #11
  %indvars.iv.next.i = add nuw nsw i64 %indvars.iv.i, 1
  %exitcond.not.i = icmp eq i64 %indvars.iv.next.i, %wide.trip.count.i
  br i1 %exitcond.not.i, label %hex_to_bin.exit, label %.lr.ph.i, !llvm.loop !6

.tail.thread:                                     ; preds = %sub_1, %sub_0, %.tail
  %54 = call i32 @strcmp(ptr noundef %38, ptr noundef nonnull dereferenceable(4) @.str.37) #10
  %55 = icmp eq i32 %54, 0
  br i1 %55, label %56, label %60

56:                                               ; preds = %.tail.thread
  %57 = getelementptr inbounds nuw i8, ptr %33, i64 40
  %58 = call i32 @hex_to_bin(ptr noundef nonnull %4, ptr noundef nonnull %57, i32 noundef 32)
  %59 = getelementptr inbounds nuw i8, ptr %33, i64 104
  store i32 %58, ptr %59, align 8
  br label %hex_to_bin.exit

60:                                               ; preds = %.tail.thread
  %61 = call i32 @strcmp(ptr noundef %38, ptr noundef nonnull dereferenceable(7) @.str.38) #10
  %62 = icmp eq i32 %61, 0
  br i1 %62, label %63, label %hex_to_bin.exit

63:                                               ; preds = %60
  %64 = call i64 @strtoul(ptr noundef nonnull captures(none) %4, ptr noundef null, i32 noundef 10) #11
  %65 = trunc i64 %64 to i32
  %66 = getelementptr inbounds nuw i8, ptr %33, i64 112
  store i32 %65, ptr %66, align 8
  br label %hex_to_bin.exit

67:                                               ; preds = %thread-pre-split.thread
  %68 = call i32 @strcmp(ptr noundef %34, ptr noundef nonnull dereferenceable(7) @.str.39) #10
  %69 = icmp eq i32 %68, 0
  br i1 %69, label %sub_032, label %hex_to_bin.exit

sub_032:                                          ; preds = %67
  %70 = getelementptr inbounds nuw i8, ptr %5, i64 8
  %71 = load ptr, ptr %70, align 8
  %72 = load i8, ptr %71, align 1
  %.not39 = icmp eq i8 %72, 105
  br i1 %.not39, label %sub_133, label %.tail31.thread

sub_133:                                          ; preds = %sub_032
  %73 = getelementptr inbounds nuw i8, ptr %71, i64 1
  %74 = load i8, ptr %73, align 1
  %.not40 = icmp eq i8 %74, 118
  br i1 %.not40, label %.tail31, label %.tail31.thread

.tail31:                                          ; preds = %sub_133
  %75 = getelementptr inbounds nuw i8, ptr %71, i64 2
  %76 = load i8, ptr %75, align 1
  %77 = icmp eq i8 %76, 0
  br i1 %77, label %78, label %.tail31.thread

78:                                               ; preds = %.tail31
  %79 = getelementptr inbounds nuw i8, ptr %33, i64 24
  %80 = call i32 @hex_to_bin(ptr noundef nonnull %4, ptr noundef nonnull %79, i32 noundef 16)
  br label %hex_to_bin.exit

.tail31.thread:                                   ; preds = %sub_133, %sub_032, %.tail31
  %81 = call i32 @strcmp(ptr noundef %71, ptr noundef nonnull dereferenceable(4) @.str.37) #10
  %82 = icmp eq i32 %81, 0
  br i1 %82, label %83, label %87

83:                                               ; preds = %.tail31.thread
  %84 = getelementptr inbounds nuw i8, ptr %33, i64 72
  %85 = call i32 @hex_to_bin(ptr noundef nonnull %4, ptr noundef nonnull %84, i32 noundef 32)
  %86 = getelementptr inbounds nuw i8, ptr %33, i64 108
  store i32 %85, ptr %86, align 4
  br label %hex_to_bin.exit

87:                                               ; preds = %.tail31.thread
  %88 = call i32 @strcmp(ptr noundef %71, ptr noundef nonnull dereferenceable(7) @.str.38) #10
  %89 = icmp eq i32 %88, 0
  br i1 %89, label %90, label %hex_to_bin.exit

90:                                               ; preds = %87
  %91 = call i64 @strtoul(ptr noundef nonnull captures(none) %4, ptr noundef null, i32 noundef 10) #11
  %92 = trunc i64 %91 to i32
  %93 = getelementptr inbounds nuw i8, ptr %33, i64 116
  store i32 %92, ptr %93, align 4
  br label %hex_to_bin.exit

hex_to_bin.exit:                                  ; preds = %.lr.ph.i, %8, %45, %thread-pre-split, %67, %83, %90, %87, %78, %60, %63, %56, %._crit_edge, %2
  call void @llvm.lifetime.end.p0(i64 8, ptr nonnull %6) #11
  call void @llvm.lifetime.end.p0(i64 32, ptr nonnull %5) #11
  call void @llvm.lifetime.end.p0(i64 65, ptr nonnull %4) #11
  call void @llvm.lifetime.end.p0(i64 33, ptr nonnull %3) #11
  ret void
}